; Function Attrs: mustprogress nofree norecurse nosync nounwind memory(readwrite, inaccessiblemem: none) uwtable
define void @_ZN8QuantLib12Distribution3addEd(ptr nocapture noundef nonnull align 8 dereferenceable(225) %this, double noundef %value) local_unnamed_addr #6 align 2 {
entry:
  %isNormalized_ = getelementptr inbounds nuw i8, ptr %this, i64 224
  store i8 0, ptr %isNormalized_, align 8, !tbaa !45
  %x_ = getelementptr inbounds nuw i8, ptr %this, i64 48
  %0 = load ptr, ptr %x_, align 8, !tbaa !31
  %1 = load double, ptr %0, align 8, !tbaa !27
  %cmp = fcmp olt double %value, %1
  br i1 %cmp, label %if.then, label %for.cond.preheader

for.cond.preheader:                               ; preds = %entry
  %count_ = getelementptr inbounds nuw i8, ptr %this, i64 24
  %_M_finish.i = getelementptr inbounds nuw i8, ptr %this, i64 32
  %2 = load ptr, ptr %_M_finish.i, align 8, !tbaa !24
  %3 = load ptr, ptr %count_, align 8, !tbaa !21
  %cmp316.not = icmp eq ptr %2, %3
  br i1 %cmp316.not, label %for.end, label %for.body.lr.ph

for.body.lr.ph:                                   ; preds = %for.cond.preheader
  %sub.ptr.lhs.cast.i = ptrtoint ptr %2 to i64
  %sub.ptr.rhs.cast.i = ptrtoint ptr %3 to i64
  %sub.ptr.sub.i = sub i64 %sub.ptr.lhs.cast.i, %sub.ptr.rhs.cast.i
  %sub.ptr.div.i = ashr exact i64 %sub.ptr.sub.i, 2
  %dx_ = getelementptr inbounds nuw i8, ptr %this, i64 72
  %4 = load ptr, ptr %dx_, align 8, !tbaa !25
  %umax = tail call i64 @llvm.umax.i64(i64 %sub.ptr.div.i, i64 1)
  br label %for.body

if.then:                                          ; preds = %entry
  %underFlow_ = getelementptr inbounds nuw i8, ptr %this, i64 220
  %5 = load i32, ptr %underFlow_, align 4, !tbaa !46
  %inc = add nsw i32 %5, 1
  store i32 %inc, ptr %underFlow_, align 4, !tbaa !46
  br label %if.end16

for.body:                                         ; preds = %for.body.lr.ph, %for.inc
  %i.017 = phi i64 [ 0, %for.body.lr.ph ], [ %inc14, %for.inc ]
  %add.ptr.i = getelementptr inbounds nuw double, ptr %0, i64 %i.017
  %6 = load double, ptr %add.ptr.i, align 8, !tbaa !27
  %add.ptr.i8 = getelementptr inbounds nuw double, ptr %4, i64 %i.017
  %7 = load double, ptr %add.ptr.i8, align 8, !tbaa !27
  %add = fadd double %6, %7
  %cmp7 = fcmp ogt double %add, %value
  br i1 %cmp7, label %cleanup, label %for.inc

for.inc:                                          ; preds = %for.body
  %inc14 = add nuw i64 %i.017, 1
  %exitcond.not = icmp eq i64 %inc14, %umax
  br i1 %exitcond.not, label %for.end, label %for.body, !llvm.loop !47

cleanup:                                          ; preds = %for.body
  %add.ptr.i9 = getelementptr inbounds nuw i32, ptr %3, i64 %i.017
  %8 = load i32, ptr %add.ptr.i9, align 4, !tbaa !23
  %inc11 = add nsw i32 %8, 1
  store i32 %inc11, ptr %add.ptr.i9, align 4, !tbaa !23
  %average_ = getelementptr inbounds nuw i8, ptr %this, i64 192
  %9 = load ptr, ptr %average_, align 8, !tbaa !25
  %add.ptr.i10 = getelementptr inbounds nuw double, ptr %9, i64 %i.017
  %10 = load double, ptr %add.ptr.i10, align 8, !tbaa !27
  %add13 = fadd double %value, %10
  store double %add13, ptr %add.ptr.i10, align 8, !tbaa !27
  br label %if.end16

for.end:                                          ; preds = %for.inc, %for.cond.preheader
  %overFlow_ = getelementptr inbounds nuw i8, ptr %this, i64 216
  %11 = load i32, ptr %overFlow_, align 8, !tbaa !48
  %inc15 = add nsw i32 %11, 1
  store i32 %inc15, ptr %overFlow_, align 8, !tbaa !48
  br label %if.end16

if.end16:                                         ; preds = %cleanup, %for.end, %if.then
  ret void
}